target datalayout = "e-m:e-p270:32:32-p271:32:32-p272:64:64-i64:64-i128:128-f80:128-n8:16:32:64-S128"
target triple = "x86_64-pc-linux-gnu"

@H5D_init_g = external global i8, align 1
@H5_libterm_g = external global i8, align 1
@.str.1 = private unnamed_addr constant [103 x i8] c"generated/home/dtcxzyw/WorkSpace/Projects/compilers/llvm-opt-benchmark/bench/hdf5/hdf5/src/H5Dcontig.c\00", align 1
@H5E_DATASET_g = external global i64, align 8
@__func__.H5D__contig_flush = private unnamed_addr constant [18 x i8] c"H5D__contig_flush\00", align 1
@H5E_CANTFLUSH_g = external global i64, align 8
@.str.53 = private unnamed_addr constant [29 x i8] c"unable to flush sieve buffer\00", align 1

; Function Attrs: nounwind uwtable
define internal i32 @H5D__contig_flush(ptr noundef %0) #0 {
  %2 = alloca ptr, align 8
  %3 = alloca i32, align 4
  %4 = alloca i8, align 1
  store ptr %0, ptr %2, align 8, !tbaa !8
  call void @llvm.lifetime.start.p0(i64 4, ptr %3) #6
  store i32 0, ptr %3, align 4, !tbaa !10
  call void @llvm.lifetime.start.p0(i64 1, ptr %4) #6
  store i8 0, ptr %4, align 1, !tbaa !12
  %5 = load i8, ptr @H5D_init_g, align 1, !tbaa !12, !range !14, !noundef !15
  %6 = trunc i8 %5 to i1
  br i1 %6, label %11, label %7

7:                                                ; preds = %1
  %8 = load i8, ptr @H5_libterm_g, align 1, !tbaa !12, !range !14, !noundef !15
  %9 = trunc i8 %8 to i1
  %10 = xor i1 %9, true
  br label %11

11:                                               ; preds = %7, %1
  %12 = phi i1 [ true, %1 ], [ %10, %7 ]
  %13 = xor i1 %12, true
  %14 = xor i1 %13, true
  %15 = zext i1 %14 to i32
  %16 = sext i32 %15 to i64
  %17 = call i64 @llvm.expect.i64(i64 %16, i64 1)
  %18 = icmp ne i64 %17, 0
  br i1 %18, label %19, label %44

19:                                               ; preds = %11
  %20 = load ptr, ptr %2, align 8, !tbaa !8
  %21 = call i32 @H5D__flush_sieve_buf(ptr noundef %20)
  %22 = icmp slt i32 %21, 0
  br i1 %22, label %23, label %42

23:                                               ; preds = %19
  br label %24

24:                                               ; preds = %23
  br label %25

25:                                               ; preds = %24
  br label %26

26:                                               ; preds = %25
  %27 = load i64, ptr @H5E_DATASET_g, align 8, !tbaa !49
  %28 = load i64, ptr @H5E_CANTFLUSH_g, align 8, !tbaa !49
  %29 = call i32 (ptr, ptr, i32, i64, i64, ptr, ...) @H5E_printf_stack(ptr noundef @.str.1, ptr noundef @__func__.H5D__contig_flush, i32 noundef 1598, i64 noundef %27, i64 noundef %28, ptr noundef @.str.53)
  br label %30

30:                                               ; preds = %26
  br label %31

31:                                               ; preds = %30
  store i8 1, ptr %4, align 1, !tbaa !12
  %32 = load i8, ptr %4, align 1, !tbaa !12, !range !14, !noundef !15
  %33 = trunc i8 %32 to i1
  %34 = zext i1 %33 to i8
  store i8 %34, ptr %4, align 1, !tbaa !12
  br label %35

35:                                               ; preds = %31
  br label %36

36:                                               ; preds = %35
  br label %37

37:                                               ; preds = %36
  store i32 -1, ptr %3, align 4, !tbaa !10
  br label %43

38:                                               ; No predecessors!
  br label %39

39:                                               ; preds = %38
  br label %40

40:                                               ; preds = %39
  br label %41

41:                                               ; preds = %40
  br label %42

42:                                               ; preds = %41, %19
  br label %43

43:                                               ; preds = %42, %37
  br label %44

44:                                               ; preds = %43, %11
  %45 = load i32, ptr %3, align 4, !tbaa !10
  call void @llvm.lifetime.end.p0(i64 1, ptr %4) #6
  call void @llvm.lifetime.end.p0(i64 4, ptr %3) #6
  ret i32 %45
}